target datalayout = "e-m:e-p270:32:32-p271:32:32-p272:64:64-i64:64-i128:128-f80:128-n8:16:32:64-S128"
target triple = "x86_64-pc-linux-gnu"

%"class.triggers::trigger_t" = type <{ ptr, i64, i8, i8, i8, i8, i8, [3 x i8], i32, i32, i32, i32, i32, [4 x i8] }>
%"class.triggers::trigger_t.base" = type <{ ptr, i64, i8, i8, i8, i8, i8, [3 x i8], i32, i32, i32, i32, i32 }>
%"class.triggers::mcontrol_common_t" = type <{ %"class.triggers::trigger_t.base", i8, [3 x i8], i32, i8, i8, i8, i8, i32, i8, i8, i8, i8 }>

; Function Attrs: inlinehint mustprogress nounwind uwtable
define internal noundef i32 @_ZL3ctom(i64 noundef %0) #9 {
  %2 = alloca i64, align 8
  %3 = alloca i32, align 4
  store i64 %0, ptr %2, align 8, !tbaa !16
  call void @llvm.lifetime.start.p0(i64 4, ptr %3) #3
  store i32 0, ptr %3, align 4, !tbaa !28
  br label %4

4:                                                ; preds = %8, %1
  %5 = load i64, ptr %2, align 8, !tbaa !16
  %6 = and i64 %5, 1
  %7 = icmp eq i64 %6, 1
  br i1 %7, label %8, label %13

8:                                                ; preds = %4
  %9 = load i64, ptr %2, align 8, !tbaa !16
  %10 = lshr i64 %9, 1
  store i64 %10, ptr %2, align 8, !tbaa !16
  %11 = load i32, ptr %3, align 4, !tbaa !28
  %12 = add nsw i32 %11, 1
  store i32 %12, ptr %3, align 4, !tbaa !28
  br label %4, !llvm.loop !212

13:                                               ; preds = %4
  %14 = load i32, ptr %3, align 4, !tbaa !28
  call void @llvm.lifetime.end.p0(i64 4, ptr %3) #3
  ret i32 %14
}

; Function Attrs: mustprogress uwtable
define noundef zeroext i1 @_ZNK8triggers17mcontrol_common_t12simple_matchEjm(ptr noundef nonnull align 8 dereferenceable(63) %0, i32 noundef %1, i64 noundef %2) #8 align 2 {
  %4 = alloca i1, align 1
  %5 = alloca ptr, align 8
  %6 = alloca i32, align 4
  %7 = alloca i64, align 8
  %8 = alloca i64, align 8
  %9 = alloca i64, align 8
  %10 = alloca i64, align 8
  %11 = alloca i64, align 8
  %12 = alloca i64, align 8
  %13 = alloca i64, align 8
  %14 = alloca i64, align 8
  store ptr %0, ptr %5, align 8, !tbaa !210
  store i32 %1, ptr %6, align 4, !tbaa !28
  store i64 %2, ptr %7, align 8, !tbaa !16
  %15 = load ptr, ptr %5, align 8
  %16 = getelementptr inbounds nuw %"class.triggers::mcontrol_common_t", ptr %15, i32 0, i32 8
  %17 = load i32, ptr %16, align 8, !tbaa !206
  switch i32 %17, label %102 [
    i32 0, label %18
    i32 1, label %23
    i32 2, label %40
    i32 3, label %45
    i32 4, label %50
    i32 5, label %77
  ]

18:                                               ; preds = %3
  %19 = load i64, ptr %7, align 8, !tbaa !16
  %20 = getelementptr inbounds nuw %"class.triggers::trigger_t", ptr %15, i32 0, i32 1
  %21 = load i64, ptr %20, align 8, !tbaa !10
  %22 = icmp eq i64 %19, %21
  store i1 %22, ptr %4, align 1
  br label %103

23:                                               ; preds = %3
  call void @llvm.lifetime.start.p0(i64 8, ptr %8) #3
  %24 = getelementptr inbounds nuw %"class.triggers::trigger_t", ptr %15, i32 0, i32 1
  %25 = load i64, ptr %24, align 8, !tbaa !10
  %26 = call noundef i32 @_ZL3ctom(i64 noundef %25)
  %27 = add nsw i32 %26, 1
  %28 = shl i32 1, %27
  %29 = sub nsw i32 %28, 1
  %30 = xor i32 %29, -1
  %31 = sext i32 %30 to i64
  store i64 %31, ptr %8, align 8, !tbaa !16
  %32 = load i64, ptr %7, align 8, !tbaa !16
  %33 = load i64, ptr %8, align 8, !tbaa !16
  %34 = and i64 %32, %33
  %35 = getelementptr inbounds nuw %"class.triggers::trigger_t", ptr %15, i32 0, i32 1
  %36 = load i64, ptr %35, align 8, !tbaa !10
  %37 = load i64, ptr %8, align 8, !tbaa !16
  %38 = and i64 %36, %37
  %39 = icmp eq i64 %34, %38
  store i1 %39, ptr %4, align 1
  call void @llvm.lifetime.end.p0(i64 8, ptr %8) #3
  br label %103

40:                                               ; preds = %3
  %41 = load i64, ptr %7, align 8, !tbaa !16
  %42 = getelementptr inbounds nuw %"class.triggers::trigger_t", ptr %15, i32 0, i32 1
  %43 = load i64, ptr %42, align 8, !tbaa !10
  %44 = icmp uge i64 %41, %43
  store i1 %44, ptr %4, align 1
  br label %103

45:                                               ; preds = %3
  %46 = load i64, ptr %7, align 8, !tbaa !16
  %47 = getelementptr inbounds nuw %"class.triggers::trigger_t", ptr %15, i32 0, i32 1
  %48 = load i64, ptr %47, align 8, !tbaa !10
  %49 = icmp ult i64 %46, %48
  store i1 %49, ptr %4, align 1
  br label %103

50:                                               ; preds = %3
  call void @llvm.lifetime.start.p0(i64 8, ptr %9) #3
  %51 = getelementptr inbounds nuw %"class.triggers::trigger_t", ptr %15, i32 0, i32 1
  %52 = load i64, ptr %51, align 8, !tbaa !10
  %53 = load i32, ptr %6, align 4, !tbaa !28
  %54 = udiv i32 %53, 2
  %55 = zext i32 %54 to i64
  %56 = lshr i64 %52, %55
  store i64 %56, ptr %9, align 8, !tbaa !16
  call void @llvm.lifetime.start.p0(i64 8, ptr %10) #3
  %57 = getelementptr inbounds nuw %"class.triggers::trigger_t", ptr %15, i32 0, i32 1
  %58 = load i64, ptr %57, align 8, !tbaa !10
  %59 = load i32, ptr %6, align 4, !tbaa !28
  %60 = udiv i32 %59, 2
  %61 = zext i32 %60 to i64
  %62 = shl i64 1, %61
  %63 = sub i64 %62, 1
  %64 = and i64 %58, %63
  store i64 %64, ptr %10, align 8, !tbaa !16
  call void @llvm.lifetime.start.p0(i64 8, ptr %11) #3
  %65 = load i64, ptr %7, align 8, !tbaa !16
  %66 = load i32, ptr %6, align 4, !tbaa !28
  %67 = udiv i32 %66, 2
  %68 = zext i32 %67 to i64
  %69 = shl i64 1, %68
  %70 = sub i64 %69, 1
  %71 = and i64 %65, %70
  store i64 %71, ptr %11, align 8, !tbaa !16
  %72 = load i64, ptr %11, align 8, !tbaa !16
  %73 = load i64, ptr %9, align 8, !tbaa !16
  %74 = and i64 %72, %73
  %75 = load i64, ptr %10, align 8, !tbaa !16
  %76 = icmp eq i64 %74, %75
  store i1 %76, ptr %4, align 1
  call void @llvm.lifetime.end.p0(i64 8, ptr %11) #3
  call void @llvm.lifetime.end.p0(i64 8, ptr %10) #3
  call void @llvm.lifetime.end.p0(i64 8, ptr %9) #3
  br label %103

77:                                               ; preds = %3
  call void @llvm.lifetime.start.p0(i64 8, ptr %12) #3
  %78 = getelementptr inbounds nuw %"class.triggers::trigger_t", ptr %15, i32 0, i32 1
  %79 = load i64, ptr %78, align 8, !tbaa !10
  %80 = load i32, ptr %6, align 4, !tbaa !28
  %81 = udiv i32 %80, 2
  %82 = zext i32 %81 to i64
  %83 = lshr i64 %79, %82
  store i64 %83, ptr %12, align 8, !tbaa !16
  call void @llvm.lifetime.start.p0(i64 8, ptr %13) #3
  %84 = getelementptr inbounds nuw %"class.triggers::trigger_t", ptr %15, i32 0, i32 1
  %85 = load i64, ptr %84, align 8, !tbaa !10
  %86 = load i32, ptr %6, align 4, !tbaa !28
  %87 = udiv i32 %86, 2
  %88 = zext i32 %87 to i64
  %89 = shl i64 1, %88
  %90 = sub i64 %89, 1
  %91 = and i64 %85, %90
  store i64 %91, ptr %13, align 8, !tbaa !16
  call void @llvm.lifetime.start.p0(i64 8, ptr %14) #3
  %92 = load i64, ptr %7, align 8, !tbaa !16
  %93 = load i32, ptr %6, align 4, !tbaa !28
  %94 = udiv i32 %93, 2
  %95 = zext i32 %94 to i64
  %96 = lshr i64 %92, %95
  store i64 %96, ptr %14, align 8, !tbaa !16
  %97 = load i64, ptr %14, align 8, !tbaa !16
  %98 = load i64, ptr %12, align 8, !tbaa !16
  %99 = and i64 %97, %98
  %100 = load i64, ptr %13, align 8, !tbaa !16
  %101 = icmp eq i64 %99, %100
  store i1 %101, ptr %4, align 1
  call void @llvm.lifetime.end.p0(i64 8, ptr %14) #3
  call void @llvm.lifetime.end.p0(i64 8, ptr %13) #3
  call void @llvm.lifetime.end.p0(i64 8, ptr %12) #3
  br label %103

102:                                              ; preds = %3
  unreachable

103:                                              ; preds = %77, %50, %45, %40, %23, %18
  %104 = load i1, ptr %4, align 1
  ret i1 %104
}