; Function Attrs: mustprogress nofree norecurse nosync nounwind willreturn memory(argmem: read) uwtable
define noundef zeroext i1 @_ZNK8triggers17mcontrol_common_t12simple_matchEjm(ptr noundef nonnull readonly align 8 captures(none) dereferenceable(63) %0, i32 noundef %1, i64 noundef %2) local_unnamed_addr #3 align 2 {
  %4 = getelementptr inbounds nuw i8, ptr %0, i64 56
  %5 = load i32, ptr %4, align 8, !tbaa !174
  %6 = getelementptr inbounds nuw i8, ptr %0, i64 8
  %7 = load i64, ptr %6, align 8, !tbaa !3
  switch i32 %5, label %41 [
    i32 0, label %8
    i32 1, label %10
    i32 2, label %20
    i32 3, label %22
    i32 4, label %24
    i32 5, label %33
  ]

8:                                                ; preds = %3
  %9 = icmp eq i64 %2, %7
  br label %42

10:                                               ; preds = %3
  %11 = and i64 %7, 1
  %.not5.i = icmp eq i64 %11, 0
  br i1 %.not5.i, label %_ZL3ctom.exit, label %.lr.ph.i

.lr.ph.i:                                         ; preds = %10, %.lr.ph.i
  %.07.i = phi i32 [ %13, %.lr.ph.i ], [ 0, %10 ]
  %.046.i = phi i64 [ %12, %.lr.ph.i ], [ %7, %10 ]
  %12 = lshr i64 %.046.i, 1
  %13 = add nuw nsw i32 %.07.i, 1
  %14 = and i64 %.046.i, 2
  %.not.i = icmp eq i64 %14, 0
  br i1 %.not.i, label %_ZL3ctom.exit.loopexit, label %.lr.ph.i, !llvm.loop !181

_ZL3ctom.exit.loopexit:                           ; preds = %.lr.ph.i
  %15 = add nuw nsw i32 %.07.i, 2
  br label %_ZL3ctom.exit

_ZL3ctom.exit:                                    ; preds = %_ZL3ctom.exit.loopexit, %10
  %.0.lcssa.i = phi i32 [ 1, %10 ], [ %15, %_ZL3ctom.exit.loopexit ]
  %notmask22 = shl nsw i32 -1, %.0.lcssa.i
  %16 = sext i32 %notmask22 to i64
  %17 = xor i64 %7, %2
  %18 = and i64 %17, %16
  %19 = icmp eq i64 %18, 0
  br label %42

20:                                               ; preds = %3
  %21 = icmp uge i64 %2, %7
  br label %42

22:                                               ; preds = %3
  %23 = icmp ult i64 %2, %7
  br label %42

24:                                               ; preds = %3
  %25 = lshr i32 %1, 1
  %26 = zext nneg i32 %25 to i64
  %27 = lshr i64 %7, %26
  %notmask21 = shl nsw i64 -1, %26
  %28 = xor i64 %notmask21, -1
  %29 = and i64 %7, %28
  %30 = and i64 %27, %28
  %31 = and i64 %30, %2
  %32 = icmp eq i64 %31, %29
  br label %42

33:                                               ; preds = %3
  %34 = lshr i32 %1, 1
  %35 = zext nneg i32 %34 to i64
  %notmask = shl nsw i64 -1, %35
  %36 = xor i64 %notmask, -1
  %37 = and i64 %7, %36
  %38 = and i64 %7, %2
  %39 = lshr i64 %38, %35
  %40 = icmp eq i64 %39, %37
  br label %42

41:                                               ; preds = %3
  unreachable

42:                                               ; preds = %33, %24, %22, %20, %_ZL3ctom.exit, %8
  %.0 = phi i1 [ %40, %33 ], [ %32, %24 ], [ %23, %22 ], [ %21, %20 ], [ %19, %_ZL3ctom.exit ], [ %9, %8 ]
  ret i1 %.0
}